; ModuleID = '24/1675.c'
source_filename = "24/1675.c"
target datalayout = "e-m:e-p270:32:32-p271:32:32-p272:64:64-i64:64-f80:128-n8:16:32:64-S128"
target triple = "x86_64-pc-linux-gnu"

@.str = private unnamed_addr constant [4 x i8] c"%s\0A\00", align 1

; Function Attrs: noinline nounwind uwtable
define dso_local i32 @main() #0 {
  %1 = alloca i32, align 4
  %2 = alloca [2000 x i8], align 16
  %3 = alloca [50 x i8], align 16
  %4 = alloca [50 x i8], align 16
  %5 = alloca i32, align 4
  %6 = alloca i32, align 4
  %7 = alloca i32, align 4
  %8 = alloca i32, align 4
  %9 = alloca i32, align 4
  %10 = alloca i32, align 4
  %11 = alloca i32, align 4
  %12 = alloca i32, align 4
  store i32 0, i32* %1, align 4
  store i32 0, i32* %8, align 4
  store i32 0, i32* %9, align 4
  store i32 50, i32* %12, align 4
  %13 = getelementptr inbounds [2000 x i8], [2000 x i8]* %2, i64 0, i64 0
  %14 = call i32 (i8*, ...) bitcast (i32 (...)* @gets to i32 (i8*, ...)*)(i8* %13)
  %15 = getelementptr inbounds [2000 x i8], [2000 x i8]* %2, i64 0, i64 0
  %16 = call i64 @strlen(i8* %15) #3
  %17 = trunc i64 %16 to i32
  store i32 %17, i32* %7, align 4
  store i32 0, i32* %5, align 4
  br label %18

18:                                               ; preds = %101, %0
  %19 = load i32, i32* %5, align 4
  %20 = load i32, i32* %7, align 4
  %21 = icmp sle i32 %19, %20
  br i1 %21, label %22, label %104

22:                                               ; preds = %18
  %23 = load i32, i32* %5, align 4
  %24 = sext i32 %23 to i64
  %25 = getelementptr inbounds [2000 x i8], [2000 x i8]* %2, i64 0, i64 %24
  %26 = load i8, i8* %25, align 1
  %27 = sext i8 %26 to i32
  %28 = icmp ne i32 %27, 32
  br i1 %28, label %29, label %46

29:                                               ; preds = %22
  %30 = load i32, i32* %5, align 4
  %31 = sext i32 %30 to i64
  %32 = getelementptr inbounds [2000 x i8], [2000 x i8]* %2, i64 0, i64 %31
  %33 = load i8, i8* %32, align 1
  %34 = sext i8 %33 to i32
  %35 = icmp ne i32 %34, 44
  br i1 %35, label %36, label %46

36:                                               ; preds = %29
  %37 = load i32, i32* %5, align 4
  %38 = sext i32 %37 to i64
  %39 = getelementptr inbounds [2000 x i8], [2000 x i8]* %2, i64 0, i64 %38
  %40 = load i8, i8* %39, align 1
  %41 = sext i8 %40 to i32
  %42 = icmp ne i32 %41, 0
  br i1 %42, label %43, label %46

43:                                               ; preds = %36
  %44 = load i32, i32* %8, align 4
  %45 = add nsw i32 %44, 1
  store i32 %45, i32* %8, align 4
  br label %46

46:                                               ; preds = %43, %36, %29, %22
  %47 = load i32, i32* %5, align 4
  %48 = sext i32 %47 to i64
  %49 = getelementptr inbounds [2000 x i8], [2000 x i8]* %2, i64 0, i64 %48
  %50 = load i8, i8* %49, align 1
  %51 = sext i8 %50 to i32
  %52 = icmp eq i32 %51, 32
  br i1 %52, label %67, label %53

53:                                               ; preds = %46
  %54 = load i32, i32* %5, align 4
  %55 = sext i32 %54 to i64
  %56 = getelementptr inbounds [2000 x i8], [2000 x i8]* %2, i64 0, i64 %55
  %57 = load i8, i8* %56, align 1
  %58 = sext i8 %57 to i32
  %59 = icmp eq i32 %58, 44
  br i1 %59, label %67, label %60

60:                                               ; preds = %53
  %61 = load i32, i32* %5, align 4
  %62 = sext i32 %61 to i64
  %63 = getelementptr inbounds [2000 x i8], [2000 x i8]* %2, i64 0, i64 %62
  %64 = load i8, i8* %63, align 1
  %65 = sext i8 %64 to i32
  %66 = icmp eq i32 %65, 0
  br i1 %66, label %67, label %100

67:                                               ; preds = %60, %53, %46
  %68 = load i32, i32* %8, align 4
  store i32 %68, i32* %11, align 4
  store i32 0, i32* %8, align 4
  %69 = load i32, i32* %11, align 4
  %70 = load i32, i32* %9, align 4
  %71 = icmp sgt i32 %69, %70
  br i1 %71, label %72, label %99

72:                                               ; preds = %67
  %73 = load i32, i32* %11, align 4
  store i32 %73, i32* %10, align 4
  %74 = load i32, i32* %9, align 4
  store i32 %74, i32* %11, align 4
  %75 = load i32, i32* %10, align 4
  store i32 %75, i32* %9, align 4
  store i32 0, i32* %6, align 4
  br label %76

76:                                               ; preds = %95, %72
  %77 = load i32, i32* %6, align 4
  %78 = load i32, i32* %9, align 4
  %79 = icmp slt i32 %77, %78
  br i1 %79, label %80, label %98

80:                                               ; preds = %76
  %81 = load i32, i32* %5, align 4
  %82 = load i32, i32* %9, align 4
  %83 = sub nsw i32 %81, %82
  %84 = load i32, i32* %6, align 4
  %85 = add nsw i32 %83, %84
  %86 = sext i32 %85 to i64
  %87 = getelementptr inbounds [2000 x i8], [2000 x i8]* %2, i64 0, i64 %86
  %88 = load i8, i8* %87, align 1
  %89 = load i32, i32* %6, align 4
  %90 = sext i32 %89 to i64
  %91 = getelementptr inbounds [50 x i8], [50 x i8]* %3, i64 0, i64 %90
  store i8 %88, i8* %91, align 1
  %92 = load i32, i32* %9, align 4
  %93 = sext i32 %92 to i64
  %94 = getelementptr inbounds [50 x i8], [50 x i8]* %3, i64 0, i64 %93
  store i8 0, i8* %94, align 1
  br label %95

95:                                               ; preds = %80
  %96 = load i32, i32* %6, align 4
  %97 = add nsw i32 %96, 1
  store i32 %97, i32* %6, align 4
  br label %76

98:                                               ; preds = %76
  br label %99

99:                                               ; preds = %98, %67
  br label %100

100:                                              ; preds = %99, %60
  br label %101

101:                                              ; preds = %100
  %102 = load i32, i32* %5, align 4
  %103 = add nsw i32 %102, 1
  store i32 %103, i32* %5, align 4
  br label %18

104:                                              ; preds = %18
  %105 = getelementptr inbounds [50 x i8], [50 x i8]* %3, i64 0, i64 0
  %106 = call i32 (i8*, ...) @printf(i8* getelementptr inbounds ([4 x i8], [4 x i8]* @.str, i64 0, i64 0), i8* %105)
  store i32 0, i32* %5, align 4
  br label %107

107:                                              ; preds = %206, %104
  %108 = load i32, i32* %5, align 4
  %109 = load i32, i32* %7, align 4
  %110 = icmp sle i32 %108, %109
  br i1 %110, label %111, label %209

111:                                              ; preds = %107
  %112 = load i32, i32* %5, align 4
  %113 = sext i32 %112 to i64
  %114 = getelementptr inbounds [2000 x i8], [2000 x i8]* %2, i64 0, i64 %113
  %115 = load i8, i8* %114, align 1
  %116 = sext i8 %115 to i32
  %117 = icmp ne i32 %116, 32
  br i1 %117, label %118, label %135

118:                                              ; preds = %111
  %119 = load i32, i32* %5, align 4
  %120 = sext i32 %119 to i64
  %121 = getelementptr inbounds [2000 x i8], [2000 x i8]* %2, i64 0, i64 %120
  %122 = load i8, i8* %121, align 1
  %123 = sext i8 %122 to i32
  %124 = icmp ne i32 %123, 44
  br i1 %124, label %125, label %135

125:                                              ; preds = %118
  %126 = load i32, i32* %5, align 4
  %127 = sext i32 %126 to i64
  %128 = getelementptr inbounds [2000 x i8], [2000 x i8]* %2, i64 0, i64 %127
  %129 = load i8, i8* %128, align 1
  %130 = sext i8 %129 to i32
  %131 = icmp ne i32 %130, 0
  br i1 %131, label %132, label %135

132:                                              ; preds = %125
  %133 = load i32, i32* %8, align 4
  %134 = add nsw i32 %133, 1
  store i32 %134, i32* %8, align 4
  br label %135

135:                                              ; preds = %132, %125, %118, %111
  %136 = load i32, i32* %5, align 4
  %137 = sext i32 %136 to i64
  %138 = getelementptr inbounds [2000 x i8], [2000 x i8]* %2, i64 0, i64 %137
  %139 = load i8, i8* %138, align 1
  %140 = sext i8 %139 to i32
  %141 = icmp eq i32 %140, 32
  br i1 %141, label %156, label %142

142:                                              ; preds = %135
  %143 = load i32, i32* %5, align 4
  %144 = sext i32 %143 to i64
  %145 = getelementptr inbounds [2000 x i8], [2000 x i8]* %2, i64 0, i64 %144
  %146 = load i8, i8* %145, align 1
  %147 = sext i8 %146 to i32
  %148 = icmp eq i32 %147, 44
  br i1 %148, label %156, label %149

149:                                              ; preds = %142
  %150 = load i32, i32* %5, align 4
  %151 = sext i32 %150 to i64
  %152 = getelementptr inbounds [2000 x i8], [2000 x i8]* %2, i64 0, i64 %151
  %153 = load i8, i8* %152, align 1
  %154 = sext i8 %153 to i32
  %155 = icmp eq i32 %154, 0
  br i1 %155, label %156, label %205

156:                                              ; preds = %149, %142, %135
  %157 = load i32, i32* %5, align 4
  %158 = sub nsw i32 %157, 1
  %159 = sext i32 %158 to i64
  %160 = getelementptr inbounds [2000 x i8], [2000 x i8]* %2, i64 0, i64 %159
  %161 = load i8, i8* %160, align 1
  %162 = sext i8 %161 to i32
  %163 = icmp ne i32 %162, 32
  br i1 %163, label %164, label %205

164:                                              ; preds = %156
  %165 = load i32, i32* %5, align 4
  %166 = sub nsw i32 %165, 1
  %167 = sext i32 %166 to i64
  %168 = getelementptr inbounds [2000 x i8], [2000 x i8]* %2, i64 0, i64 %167
  %169 = load i8, i8* %168, align 1
  %170 = sext i8 %169 to i32
  %171 = icmp ne i32 %170, 44
  br i1 %171, label %172, label %205

172:                                              ; preds = %164
  %173 = load i32, i32* %8, align 4
  store i32 %173, i32* %11, align 4
  store i32 0, i32* %8, align 4
  %174 = load i32, i32* %11, align 4
  %175 = load i32, i32* %12, align 4
  %176 = icmp slt i32 %174, %175
  br i1 %176, label %177, label %204

177:                                              ; preds = %172
  %178 = load i32, i32* %11, align 4
  store i32 %178, i32* %10, align 4
  %179 = load i32, i32* %12, align 4
  store i32 %179, i32* %11, align 4
  %180 = load i32, i32* %10, align 4
  store i32 %180, i32* %12, align 4
  store i32 0, i32* %6, align 4
  br label %181

181:                                              ; preds = %200, %177
  %182 = load i32, i32* %6, align 4
  %183 = load i32, i32* %12, align 4
  %184 = icmp slt i32 %182, %183
  br i1 %184, label %185, label %203

185:                                              ; preds = %181
  %186 = load i32, i32* %5, align 4
  %187 = load i32, i32* %12, align 4
  %188 = sub nsw i32 %186, %187
  %189 = load i32, i32* %6, align 4
  %190 = add nsw i32 %188, %189
  %191 = sext i32 %190 to i64
  %192 = getelementptr inbounds [2000 x i8], [2000 x i8]* %2, i64 0, i64 %191
  %193 = load i8, i8* %192, align 1
  %194 = load i32, i32* %6, align 4
  %195 = sext i32 %194 to i64
  %196 = getelementptr inbounds [50 x i8], [50 x i8]* %4, i64 0, i64 %195
  store i8 %193, i8* %196, align 1
  %197 = load i32, i32* %12, align 4
  %198 = sext i32 %197 to i64
  %199 = getelementptr inbounds [50 x i8], [50 x i8]* %4, i64 0, i64 %198
  store i8 0, i8* %199, align 1
  br label %200

200:                                              ; preds = %185
  %201 = load i32, i32* %6, align 4
  %202 = add nsw i32 %201, 1
  store i32 %202, i32* %6, align 4
  br label %181

203:                                              ; preds = %181
  br label %204

204:                                              ; preds = %203, %172
  br label %205

205:                                              ; preds = %204, %164, %156, %149
  br label %206

206:                                              ; preds = %205
  %207 = load i32, i32* %5, align 4
  %208 = add nsw i32 %207, 1
  store i32 %208, i32* %5, align 4
  br label %107

209:                                              ; preds = %107
  %210 = getelementptr inbounds [50 x i8], [50 x i8]* %4, i64 0, i64 0
  %211 = call i32 (i8*, ...) @printf(i8* getelementptr inbounds ([4 x i8], [4 x i8]* @.str, i64 0, i64 0), i8* %210)
  ret i32 0
}

declare dso_local i32 @gets(...) #1

; Function Attrs: nounwind readonly
declare dso_local i64 @strlen(i8*) #2

declare dso_local i32 @printf(i8*, ...) #1


!llvm.module.flags = !{!0}
!llvm.ident = !{!1}

!0 = !{i32 1, !"wchar_size", i32 4}
!1 = !{!"clang version 10.0.0-4ubuntu1 "}
